target datalayout = "e-m:e-p270:32:32-p271:32:32-p272:64:64-i64:64-i128:128-f80:128-n8:16:32:64-S128"
target triple = "x86_64-unknown-linux-gnu"

; Function Attrs: mustprogress nounwind uwtable
define linkonce_odr noundef zeroext i1 @_ZSt5isnand(double noundef %__x) #2 comdat {
entry:
  %__x.addr = alloca double, align 8
  store double %__x, ptr %__x.addr, align 8, !tbaa !7
  %0 = load double, ptr %__x.addr, align 8, !tbaa !7
  %1 = call i1 @llvm.is.fpclass.f64(double %0, i32 3)
  ret i1 %1
}

; Function Attrs: mustprogress nounwind uwtable
define linkonce_odr noundef zeroext i1 @_ZSt8isfinited(double noundef %__x) #2 comdat {
entry:
  %__x.addr = alloca double, align 8
  store double %__x, ptr %__x.addr, align 8, !tbaa !7
  %0 = load double, ptr %__x.addr, align 8, !tbaa !7
  %1 = call i1 @llvm.is.fpclass.f64(double %0, i32 504)
  ret i1 %1
}

; Function Attrs: mustprogress uwtable
define noundef double @_ZNK8QuantLib13ErrorFunctionclEd(ptr noundef nonnull align 1 dereferenceable(1) %this, double noundef %x) #0 align 2 {
entry:
  %retval = alloca double, align 8
  %this.addr = alloca ptr, align 8
  %x.addr = alloca double, align 8
  %R = alloca double, align 8
  %S = alloca double, align 8
  %P = alloca double, align 8
  %Q = alloca double, align 8
  %s = alloca double, align 8
  %y = alloca double, align 8
  %z = alloca double, align 8
  %r = alloca double, align 8
  %ax = alloca double, align 8
  %cleanup.dest.slot = alloca i32, align 4
  store ptr %this, ptr %this.addr, align 8, !tbaa !3
  store double %x, ptr %x.addr, align 8, !tbaa !7
  call void @llvm.lifetime.start.p0(i64 8, ptr %R) #5
  call void @llvm.lifetime.start.p0(i64 8, ptr %S) #5
  call void @llvm.lifetime.start.p0(i64 8, ptr %P) #5
  call void @llvm.lifetime.start.p0(i64 8, ptr %Q) #5
  call void @llvm.lifetime.start.p0(i64 8, ptr %s) #5
  call void @llvm.lifetime.start.p0(i64 8, ptr %y) #5
  call void @llvm.lifetime.start.p0(i64 8, ptr %z) #5
  call void @llvm.lifetime.start.p0(i64 8, ptr %r) #5
  call void @llvm.lifetime.start.p0(i64 8, ptr %ax) #5
  %0 = load double, ptr %x.addr, align 8, !tbaa !7
  %call = call noundef zeroext i1 @_ZSt8isfinited(double noundef %0)
  br i1 %call, label %if.end, label %if.then

if.then:                                          ; preds = %entry
  %1 = load double, ptr %x.addr, align 8, !tbaa !7
  %call2 = call noundef zeroext i1 @_ZSt5isnand(double noundef %1)
  br i1 %call2, label %if.then3, label %if.else

if.then3:                                         ; preds = %if.then
  %2 = load double, ptr %x.addr, align 8, !tbaa !7
  store double %2, ptr %retval, align 8
  store i32 1, ptr %cleanup.dest.slot, align 4
  br label %cleanup

if.else:                                          ; preds = %if.then
  %3 = load double, ptr %x.addr, align 8, !tbaa !7
  %cmp = fcmp ogt double %3, 0.000000e+00
  %cond = select i1 %cmp, i32 1, i32 -1
  %conv = sitofp i32 %cond to double
  store double %conv, ptr %retval, align 8
  store i32 1, ptr %cleanup.dest.slot, align 4
  br label %cleanup

if.end:                                           ; preds = %entry
  %4 = load double, ptr %x.addr, align 8, !tbaa !7
  %5 = call double @llvm.fabs.f64(double %4)
  store double %5, ptr %ax, align 8, !tbaa !7
  %6 = load double, ptr %ax, align 8, !tbaa !7
  %cmp4 = fcmp olt double %6, 8.437500e-01
  br i1 %cmp4, label %if.then5, label %if.end25

if.then5:                                         ; preds = %if.end
  %7 = load double, ptr %ax, align 8, !tbaa !7
  %cmp6 = fcmp olt double %7, 0x3E2FFFFFFFFDB73D
  br i1 %cmp6, label %if.then7, label %if.end13

if.then7:                                         ; preds = %if.then5
  %8 = load double, ptr %ax, align 8, !tbaa !7
  %cmp8 = fcmp olt double %8, 0x50000000000000
  br i1 %cmp8, label %if.then9, label %if.end11

if.then9:                                         ; preds = %if.then7
  %9 = load double, ptr %x.addr, align 8, !tbaa !7
  %10 = load double, ptr %x.addr, align 8, !tbaa !7
  %mul10 = fmul double 0x3FF06EBA8214DB69, %10
  %11 = call double @llvm.fmuladd.f64(double 8.000000e+00, double %9, double %mul10)
  %mul = fmul double 1.250000e-01, %11
  store double %mul, ptr %retval, align 8
  store i32 1, ptr %cleanup.dest.slot, align 4
  br label %cleanup

if.end11:                                         ; preds = %if.then7
  %12 = load double, ptr %x.addr, align 8, !tbaa !7
  %13 = load double, ptr %x.addr, align 8, !tbaa !7
  %14 = call double @llvm.fmuladd.f64(double 0x3FC06EBA8214DB69, double %13, double %12)
  store double %14, ptr %retval, align 8
  store i32 1, ptr %cleanup.dest.slot, align 4
  br label %cleanup

if.end13:                                         ; preds = %if.then5
  %15 = load double, ptr %x.addr, align 8, !tbaa !7
  %16 = load double, ptr %x.addr, align 8, !tbaa !7
  %mul14 = fmul double %15, %16
  store double %mul14, ptr %z, align 8, !tbaa !7
  %17 = load double, ptr %z, align 8, !tbaa !7
  %18 = load double, ptr %z, align 8, !tbaa !7
  %19 = load double, ptr %z, align 8, !tbaa !7
  %20 = load double, ptr %z, align 8, !tbaa !7
  %21 = call double @llvm.fmuladd.f64(double %20, double 0xBEF8EAD6120016AC, double 0xBF77A291236668E4)
  %22 = call double @llvm.fmuladd.f64(double %19, double %21, double 0xBF9D2A51DBD7194F)
  %23 = call double @llvm.fmuladd.f64(double %18, double %22, double 0xBFD4CD7D691CB913)
  %24 = call double @llvm.fmuladd.f64(double %17, double %23, double 0x3FC06EBA8214DB68)
  store double %24, ptr %r, align 8, !tbaa !7
  %25 = load double, ptr %z, align 8, !tbaa !7
  %26 = load double, ptr %z, align 8, !tbaa !7
  %27 = load double, ptr %z, align 8, !tbaa !7
  %28 = load double, ptr %z, align 8, !tbaa !7
  %29 = load double, ptr %z, align 8, !tbaa !7
  %30 = call double @llvm.fmuladd.f64(double %29, double 0xBED09C4342A26120, double 0x3F215DC9221C1A10)
  %31 = call double @llvm.fmuladd.f64(double %28, double %30, double 0x3F74D022C4D36B0F)
  %32 = call double @llvm.fmuladd.f64(double %27, double %31, double 0x3FB0A54C5536CEBA)
  %33 = call double @llvm.fmuladd.f64(double %26, double %32, double 0x3FD97779CDDADC09)
  %34 = call double @llvm.fmuladd.f64(double %25, double %33, double 1.000000e+00)
  store double %34, ptr %s, align 8, !tbaa !7
  %35 = load double, ptr %r, align 8, !tbaa !7
  %36 = load double, ptr %s, align 8, !tbaa !7
  %div = fdiv double %35, %36
  store double %div, ptr %y, align 8, !tbaa !7
  %37 = load double, ptr %x.addr, align 8, !tbaa !7
  %38 = load double, ptr %x.addr, align 8, !tbaa !7
  %39 = load double, ptr %y, align 8, !tbaa !7
  %40 = call double @llvm.fmuladd.f64(double %38, double %39, double %37)
  store double %40, ptr %retval, align 8
  store i32 1, ptr %cleanup.dest.slot, align 4
  br label %cleanup

if.end25:                                         ; preds = %if.end
  %41 = load double, ptr %ax, align 8, !tbaa !7
  %cmp26 = fcmp olt double %41, 1.250000e+00
  br i1 %cmp26, label %if.then27, label %if.end46

if.then27:                                        ; preds = %if.end25
  %42 = load double, ptr %ax, align 8, !tbaa !7
  %sub = fsub double %42, 1.000000e+00
  store double %sub, ptr %s, align 8, !tbaa !7
  %43 = load double, ptr %s, align 8, !tbaa !7
  %44 = load double, ptr %s, align 8, !tbaa !7
  %45 = load double, ptr %s, align 8, !tbaa !7
  %46 = load double, ptr %s, align 8, !tbaa !7
  %47 = load double, ptr %s, align 8, !tbaa !7
  %48 = load double, ptr %s, align 8, !tbaa !7
  %49 = call double @llvm.fmuladd.f64(double %48, double 0xBF61BF380A96073F, double 0x3FA22A36599795EB)
  %50 = call double @llvm.fmuladd.f64(double %47, double %49, double 0xBFBC63983D3E28EC)
  %51 = call double @llvm.fmuladd.f64(double %46, double %50, double 0x3FD45FCA805120E4)
  %52 = call double @llvm.fmuladd.f64(double %45, double %51, double 0xBFD7D240FBB8C3F1)
  %53 = call double @llvm.fmuladd.f64(double %44, double %52, double 0x3FDA8D00AD92B34D)
  %54 = call double @llvm.fmuladd.f64(double %43, double %53, double 0xBF6359B8BEF77538)
  store double %54, ptr %P, align 8, !tbaa !7
  %55 = load double, ptr %s, align 8, !tbaa !7
  %56 = load double, ptr %s, align 8, !tbaa !7
  %57 = load double, ptr %s, align 8, !tbaa !7
  %58 = load double, ptr %s, align 8, !tbaa !7
  %59 = load double, ptr %s, align 8, !tbaa !7
  %60 = load double, ptr %s, align 8, !tbaa !7
  %61 = call double @llvm.fmuladd.f64(double %60, double 0x3F888B545735151D, double 0x3F8BEDC26B51DD1C)
  %62 = call double @llvm.fmuladd.f64(double %59, double %61, double 0x3FC02660E763351F)
  %63 = call double @llvm.fmuladd.f64(double %58, double %62, double 0x3FB2635CD99FE9A7)
  %64 = call double @llvm.fmuladd.f64(double %57, double %63, double 0x3FE14AF092EB6F33)
  %65 = call double @llvm.fmuladd.f64(double %56, double %64, double 0x3FBB3E6618EEE323)
  %66 = call double @llvm.fmuladd.f64(double %55, double %65, double 1.000000e+00)
  store double %66, ptr %Q, align 8, !tbaa !7
  %67 = load double, ptr %x.addr, align 8, !tbaa !7
  %cmp40 = fcmp oge double %67, 0.000000e+00
  br i1 %cmp40, label %if.then41, label %if.else43

if.then41:                                        ; preds = %if.then27
  %68 = load double, ptr %P, align 8, !tbaa !7
  %69 = load double, ptr %Q, align 8, !tbaa !7
  %div42 = fdiv double %68, %69
  %add = fadd double 0x3FEB0AC160000000, %div42
  store double %add, ptr %retval, align 8
  store i32 1, ptr %cleanup.dest.slot, align 4
  br label %cleanup

if.else43:                                        ; preds = %if.then27
  %70 = load double, ptr %P, align 8, !tbaa !7
  %71 = load double, ptr %Q, align 8, !tbaa !7
  %div44 = fdiv double %70, %71
  %sub45 = fsub double 0xBFEB0AC160000000, %div44
  store double %sub45, ptr %retval, align 8
  store i32 1, ptr %cleanup.dest.slot, align 4
  br label %cleanup

if.end46:                                         ; preds = %if.end25
  %72 = load double, ptr %ax, align 8, !tbaa !7
  %cmp47 = fcmp oge double %72, 6.000000e+00
  br i1 %cmp47, label %if.then48, label %if.end52

if.then48:                                        ; preds = %if.end46
  %73 = load double, ptr %x.addr, align 8, !tbaa !7
  %cmp49 = fcmp oge double %73, 0.000000e+00
  br i1 %cmp49, label %if.then50, label %if.else51

if.then50:                                        ; preds = %if.then48
  store double 0x3FEFFFFFFFFFFFFE, ptr %retval, align 8
  store i32 1, ptr %cleanup.dest.slot, align 4
  br label %cleanup

if.else51:                                        ; preds = %if.then48
  store double 0xBFEFFFFFFFFFFFFE, ptr %retval, align 8
  store i32 1, ptr %cleanup.dest.slot, align 4
  br label %cleanup

if.end52:                                         ; preds = %if.end46
  %74 = load double, ptr %ax, align 8, !tbaa !7
  %75 = load double, ptr %ax, align 8, !tbaa !7
  %mul53 = fmul double %74, %75
  %div54 = fdiv double 1.000000e+00, %mul53
  store double %div54, ptr %s, align 8, !tbaa !7
  %76 = load double, ptr %ax, align 8, !tbaa !7
  %cmp55 = fcmp olt double %76, 0x4006DB6DB6DB6DA7
  br i1 %cmp55, label %if.then56, label %if.else72

if.then56:                                        ; preds = %if.end52
  %77 = load double, ptr %s, align 8, !tbaa !7
  %78 = load double, ptr %s, align 8, !tbaa !7
  %79 = load double, ptr %s, align 8, !tbaa !7
  %80 = load double, ptr %s, align 8, !tbaa !7
  %81 = load double, ptr %s, align 8, !tbaa !7
  %82 = load double, ptr %s, align 8, !tbaa !7
  %83 = load double, ptr %s, align 8, !tbaa !7
  %84 = call double @llvm.fmuladd.f64(double %83, double 0xC023A0EFC69AC25C, double 0xC054526557E4D2F2)
  %85 = call double @llvm.fmuladd.f64(double %82, double %84, double 0xC067135CEBCCABB2)
  %86 = call double @llvm.fmuladd.f64(double %81, double %85, double 0xC0644CB184282266)
  %87 = call double @llvm.fmuladd.f64(double %80, double %86, double 0xC04F300AE4CBA38D)
  %88 = call double @llvm.fmuladd.f64(double %79, double %87, double 0xC0251E0441B0E726)
  %89 = call double @llvm.fmuladd.f64(double %78, double %88, double 0xBFE63416E4BA7360)
  %90 = call double @llvm.fmuladd.f64(double %77, double %89, double 0xBF843412600D6435)
  store double %90, ptr %R, align 8, !tbaa !7
  %91 = load double, ptr %s, align 8, !tbaa !7
  %92 = load double, ptr %s, align 8, !tbaa !7
  %93 = load double, ptr %s, align 8, !tbaa !7
  %94 = load double, ptr %s, align 8, !tbaa !7
  %95 = load double, ptr %s, align 8, !tbaa !7
  %96 = load double, ptr %s, align 8, !tbaa !7
  %97 = load double, ptr %s, align 8, !tbaa !7
  %98 = load double, ptr %s, align 8, !tbaa !7
  %99 = call double @llvm.fmuladd.f64(double %98, double 0xBFAEEFF2EE749A62, double 0x401A47EF8E484A93)
  %100 = call double @llvm.fmuladd.f64(double %97, double %99, double 0x405B28A3EE48AE2C)
  %101 = call double @llvm.fmuladd.f64(double %96, double %100, double 0x407AD02157700314)
  %102 = call double @llvm.fmuladd.f64(double %95, double %101, double 0x40842B1921EC2868)
  %103 = call double @llvm.fmuladd.f64(double %94, double %102, double 0x407B290DD58A1A71)
  %104 = call double @llvm.fmuladd.f64(double %93, double %103, double 0x4061350C526AE721)
  %105 = call double @llvm.fmuladd.f64(double %92, double %104, double 0x4033A6B9BD707687)
  %106 = call double @llvm.fmuladd.f64(double %91, double %105, double 1.000000e+00)
  store double %106, ptr %S, align 8, !tbaa !7
  br label %if.end86

if.else72:                                        ; preds = %if.end52
  %107 = load double, ptr %s, align 8, !tbaa !7
  %108 = load double, ptr %s, align 8, !tbaa !7
  %109 = load double, ptr %s, align 8, !tbaa !7
  %110 = load double, ptr %s, align 8, !tbaa !7
  %111 = load double, ptr %s, align 8, !tbaa !7
  %112 = load double, ptr %s, align 8, !tbaa !7
  %113 = call double @llvm.fmuladd.f64(double %112, double 0xC07E384E9BDC383F, double 0xC09004616A2E5992)
  %114 = call double @llvm.fmuladd.f64(double %111, double %113, double 0xC083EC881375F228)
  %115 = call double @llvm.fmuladd.f64(double %110, double %114, double 0xC064145D43C5ED98)
  %116 = call double @llvm.fmuladd.f64(double %109, double %115, double 0xC031C209555F995A)
  %117 = call double @llvm.fmuladd.f64(double %108, double %116, double 0xBFE993BA70C285DE)
  %118 = call double @llvm.fmuladd.f64(double %107, double %117, double 0xBF84341239E86F4A)
  store double %118, ptr %R, align 8, !tbaa !7
  %119 = load double, ptr %s, align 8, !tbaa !7
  %120 = load double, ptr %s, align 8, !tbaa !7
  %121 = load double, ptr %s, align 8, !tbaa !7
  %122 = load double, ptr %s, align 8, !tbaa !7
  %123 = load double, ptr %s, align 8, !tbaa !7
  %124 = load double, ptr %s, align 8, !tbaa !7
  %125 = load double, ptr %s, align 8, !tbaa !7
  %126 = call double @llvm.fmuladd.f64(double %125, double 0xC03670E242712D62, double 0x407DA874E79FE763)
  %127 = call double @llvm.fmuladd.f64(double %124, double %126, double 0x40A3F219CEDF3BE6)
  %128 = call double @llvm.fmuladd.f64(double %123, double %127, double 0x40A8FFB7688C246A)
  %129 = call double @llvm.fmuladd.f64(double %122, double %128, double 0x409802EB189D5118)
  %130 = call double @llvm.fmuladd.f64(double %121, double %129, double 0x40745CAE221B9F0A)
  %131 = call double @llvm.fmuladd.f64(double %120, double %130, double 0x403E568B261D5190)
  %132 = call double @llvm.fmuladd.f64(double %119, double %131, double 1.000000e+00)
  store double %132, ptr %S, align 8, !tbaa !7
  br label %if.end86

if.end86:                                         ; preds = %if.else72, %if.then56
  %133 = load double, ptr %ax, align 8, !tbaa !7
  %fneg = fneg double %133
  %134 = load double, ptr %ax, align 8, !tbaa !7
  %135 = call double @llvm.fmuladd.f64(double %fneg, double %134, double -5.625000e-01)
  %136 = load double, ptr %R, align 8, !tbaa !7
  %137 = load double, ptr %S, align 8, !tbaa !7
  %div88 = fdiv double %136, %137
  %add89 = fadd double %135, %div88
  %call90 = call double @exp(double noundef %add89) #5, !tbaa !9
  store double %call90, ptr %r, align 8, !tbaa !7
  %138 = load double, ptr %x.addr, align 8, !tbaa !7
  %cmp91 = fcmp oge double %138, 0.000000e+00
  br i1 %cmp91, label %if.then92, label %if.else95

if.then92:                                        ; preds = %if.end86
  %139 = load double, ptr %r, align 8, !tbaa !7
  %140 = load double, ptr %ax, align 8, !tbaa !7
  %div93 = fdiv double %139, %140
  %sub94 = fsub double 1.000000e+00, %div93
  store double %sub94, ptr %retval, align 8
  store i32 1, ptr %cleanup.dest.slot, align 4
  br label %cleanup

if.else95:                                        ; preds = %if.end86
  %141 = load double, ptr %r, align 8, !tbaa !7
  %142 = load double, ptr %ax, align 8, !tbaa !7
  %div96 = fdiv double %141, %142
  %sub97 = fsub double %div96, 1.000000e+00
  store double %sub97, ptr %retval, align 8
  store i32 1, ptr %cleanup.dest.slot, align 4
  br label %cleanup

cleanup:                                          ; preds = %if.else95, %if.then92, %if.else51, %if.then50, %if.else43, %if.then41, %if.end13, %if.end11, %if.then9, %if.else, %if.then3
  call void @llvm.lifetime.end.p0(i64 8, ptr %ax) #5
  call void @llvm.lifetime.end.p0(i64 8, ptr %r) #5
  call void @llvm.lifetime.end.p0(i64 8, ptr %z) #5
  call void @llvm.lifetime.end.p0(i64 8, ptr %y) #5
  call void @llvm.lifetime.end.p0(i64 8, ptr %s) #5
  call void @llvm.lifetime.end.p0(i64 8, ptr %Q) #5
  call void @llvm.lifetime.end.p0(i64 8, ptr %P) #5
  call void @llvm.lifetime.end.p0(i64 8, ptr %S) #5
  call void @llvm.lifetime.end.p0(i64 8, ptr %R) #5
  %143 = load double, ptr %retval, align 8
  ret double %143
}