; Function Attrs: mustprogress nofree nounwind willreturn memory(write) uwtable
define noundef double @_ZNK8QuantLib13ErrorFunctionclEd(ptr nocapture noundef nonnull readnone align 1 dereferenceable(1) %this, double noundef %x) local_unnamed_addr #0 align 2 {
entry:
  %0 = tail call double @llvm.fabs.f64(double %x)
  %1 = fcmp ueq double %0, 0x7FF0000000000000
  br i1 %1, label %if.then, label %if.end

if.then:                                          ; preds = %entry
  %2 = fcmp uno double %x, 0.000000e+00
  br i1 %2, label %cleanup, label %if.else

if.else:                                          ; preds = %if.then
  %cmp = fcmp ogt double %x, 0.000000e+00
  %conv = select i1 %cmp, double 1.000000e+00, double -1.000000e+00
  br label %cleanup

if.end:                                           ; preds = %entry
  %cmp4 = fcmp olt double %0, 8.437500e-01
  br i1 %cmp4, label %if.then5, label %if.end25

if.then5:                                         ; preds = %if.end
  %cmp6 = fcmp olt double %0, 0x3E2FFFFFFFFDB73D
  br i1 %cmp6, label %if.then7, label %if.end13

if.then7:                                         ; preds = %if.then5
  %cmp8 = fcmp olt double %0, 0x50000000000000
  br i1 %cmp8, label %if.then9, label %if.end11

if.then9:                                         ; preds = %if.then7
  %mul10 = fmul double %x, 0x3FF06EBA8214DB69
  %3 = tail call double @llvm.fmuladd.f64(double %x, double 8.000000e+00, double %mul10)
  %mul = fmul double %3, 1.250000e-01
  br label %cleanup

if.end11:                                         ; preds = %if.then7
  %4 = tail call double @llvm.fmuladd.f64(double %x, double 0x3FC06EBA8214DB69, double %x)
  br label %cleanup

if.end13:                                         ; preds = %if.then5
  %mul14 = fmul double %x, %x
  %5 = tail call double @llvm.fmuladd.f64(double %mul14, double 0xBEF8EAD6120016AC, double 0xBF77A291236668E4)
  %6 = tail call double @llvm.fmuladd.f64(double %mul14, double %5, double 0xBF9D2A51DBD7194F)
  %7 = tail call double @llvm.fmuladd.f64(double %mul14, double %6, double 0xBFD4CD7D691CB913)
  %8 = tail call double @llvm.fmuladd.f64(double %mul14, double %7, double 0x3FC06EBA8214DB68)
  %9 = tail call double @llvm.fmuladd.f64(double %mul14, double 0xBED09C4342A26120, double 0x3F215DC9221C1A10)
  %10 = tail call double @llvm.fmuladd.f64(double %mul14, double %9, double 0x3F74D022C4D36B0F)
  %11 = tail call double @llvm.fmuladd.f64(double %mul14, double %10, double 0x3FB0A54C5536CEBA)
  %12 = tail call double @llvm.fmuladd.f64(double %mul14, double %11, double 0x3FD97779CDDADC09)
  %13 = tail call double @llvm.fmuladd.f64(double %mul14, double %12, double 1.000000e+00)
  %div = fdiv double %8, %13
  %14 = tail call double @llvm.fmuladd.f64(double %x, double %div, double %x)
  br label %cleanup

if.end25:                                         ; preds = %if.end
  %cmp26 = fcmp olt double %0, 1.250000e+00
  br i1 %cmp26, label %if.then27, label %if.end46

if.then27:                                        ; preds = %if.end25
  %sub = fadd double %0, -1.000000e+00
  %15 = tail call double @llvm.fmuladd.f64(double %sub, double 0xBF61BF380A96073F, double 0x3FA22A36599795EB)
  %16 = tail call double @llvm.fmuladd.f64(double %sub, double %15, double 0xBFBC63983D3E28EC)
  %17 = tail call double @llvm.fmuladd.f64(double %sub, double %16, double 0x3FD45FCA805120E4)
  %18 = tail call double @llvm.fmuladd.f64(double %sub, double %17, double 0xBFD7D240FBB8C3F1)
  %19 = tail call double @llvm.fmuladd.f64(double %sub, double %18, double 0x3FDA8D00AD92B34D)
  %20 = tail call double @llvm.fmuladd.f64(double %sub, double %19, double 0xBF6359B8BEF77538)
  %21 = tail call double @llvm.fmuladd.f64(double %sub, double 0x3F888B545735151D, double 0x3F8BEDC26B51DD1C)
  %22 = tail call double @llvm.fmuladd.f64(double %sub, double %21, double 0x3FC02660E763351F)
  %23 = tail call double @llvm.fmuladd.f64(double %sub, double %22, double 0x3FB2635CD99FE9A7)
  %24 = tail call double @llvm.fmuladd.f64(double %sub, double %23, double 0x3FE14AF092EB6F33)
  %25 = tail call double @llvm.fmuladd.f64(double %sub, double %24, double 0x3FBB3E6618EEE323)
  %26 = tail call double @llvm.fmuladd.f64(double %sub, double %25, double 1.000000e+00)
  %cmp40 = fcmp ult double %x, 0.000000e+00
  %div44 = fdiv double %20, %26
  br i1 %cmp40, label %if.else43, label %if.then41

if.then41:                                        ; preds = %if.then27
  %add = fadd double %div44, 0x3FEB0AC160000000
  br label %cleanup

if.else43:                                        ; preds = %if.then27
  %sub45 = fsub double 0xBFEB0AC160000000, %div44
  br label %cleanup

if.end46:                                         ; preds = %if.end25
  %cmp47 = fcmp ult double %0, 6.000000e+00
  br i1 %cmp47, label %if.end52, label %if.then48

if.then48:                                        ; preds = %if.end46
  %cmp49 = fcmp ult double %x, 0.000000e+00
  %. = select i1 %cmp49, double 0xBFEFFFFFFFFFFFFE, double 0x3FEFFFFFFFFFFFFE
  br label %cleanup

if.end52:                                         ; preds = %if.end46
  %mul53 = fmul double %x, %x
  %div54 = fdiv double 1.000000e+00, %mul53
  %cmp55 = fcmp olt double %0, 0x4006DB6DB6DB6DA7
  br i1 %cmp55, label %if.then56, label %if.else72

if.then56:                                        ; preds = %if.end52
  %27 = tail call double @llvm.fmuladd.f64(double %div54, double 0xC023A0EFC69AC25C, double 0xC054526557E4D2F2)
  %28 = tail call double @llvm.fmuladd.f64(double %div54, double %27, double 0xC067135CEBCCABB2)
  %29 = tail call double @llvm.fmuladd.f64(double %div54, double %28, double 0xC0644CB184282266)
  %30 = tail call double @llvm.fmuladd.f64(double %div54, double %29, double 0xC04F300AE4CBA38D)
  %31 = tail call double @llvm.fmuladd.f64(double %div54, double %30, double 0xC0251E0441B0E726)
  %32 = tail call double @llvm.fmuladd.f64(double %div54, double %31, double 0xBFE63416E4BA7360)
  %33 = tail call double @llvm.fmuladd.f64(double %div54, double %32, double 0xBF843412600D6435)
  %34 = tail call double @llvm.fmuladd.f64(double %div54, double 0xBFAEEFF2EE749A62, double 0x401A47EF8E484A93)
  %35 = tail call double @llvm.fmuladd.f64(double %div54, double %34, double 0x405B28A3EE48AE2C)
  %36 = tail call double @llvm.fmuladd.f64(double %div54, double %35, double 0x407AD02157700314)
  %37 = tail call double @llvm.fmuladd.f64(double %div54, double %36, double 0x40842B1921EC2868)
  %38 = tail call double @llvm.fmuladd.f64(double %div54, double %37, double 0x407B290DD58A1A71)
  %39 = tail call double @llvm.fmuladd.f64(double %div54, double %38, double 0x4061350C526AE721)
  %40 = tail call double @llvm.fmuladd.f64(double %div54, double %39, double 0x4033A6B9BD707687)
  br label %if.end86

if.else72:                                        ; preds = %if.end52
  %41 = tail call double @llvm.fmuladd.f64(double %div54, double 0xC07E384E9BDC383F, double 0xC09004616A2E5992)
  %42 = tail call double @llvm.fmuladd.f64(double %div54, double %41, double 0xC083EC881375F228)
  %43 = tail call double @llvm.fmuladd.f64(double %div54, double %42, double 0xC064145D43C5ED98)
  %44 = tail call double @llvm.fmuladd.f64(double %div54, double %43, double 0xC031C209555F995A)
  %45 = tail call double @llvm.fmuladd.f64(double %div54, double %44, double 0xBFE993BA70C285DE)
  %46 = tail call double @llvm.fmuladd.f64(double %div54, double %45, double 0xBF84341239E86F4A)
  %47 = tail call double @llvm.fmuladd.f64(double %div54, double 0xC03670E242712D62, double 0x407DA874E79FE763)
  %48 = tail call double @llvm.fmuladd.f64(double %div54, double %47, double 0x40A3F219CEDF3BE6)
  %49 = tail call double @llvm.fmuladd.f64(double %div54, double %48, double 0x40A8FFB7688C246A)
  %50 = tail call double @llvm.fmuladd.f64(double %div54, double %49, double 0x409802EB189D5118)
  %51 = tail call double @llvm.fmuladd.f64(double %div54, double %50, double 0x40745CAE221B9F0A)
  %52 = tail call double @llvm.fmuladd.f64(double %div54, double %51, double 0x403E568B261D5190)
  br label %if.end86

if.end86:                                         ; preds = %if.else72, %if.then56
  %.sink = phi double [ %52, %if.else72 ], [ %40, %if.then56 ]
  %R.0 = phi double [ %46, %if.else72 ], [ %33, %if.then56 ]
  %53 = tail call double @llvm.fmuladd.f64(double %div54, double %.sink, double 1.000000e+00)
  %fneg = fneg double %0
  %54 = tail call double @llvm.fmuladd.f64(double %fneg, double %0, double -5.625000e-01)
  %div88 = fdiv double %R.0, %53
  %add89 = fadd double %54, %div88
  %call90 = tail call double @exp(double noundef %add89) #3, !tbaa !3
  %cmp91 = fcmp ult double %x, 0.000000e+00
  %div96 = fdiv double %call90, %0
  br i1 %cmp91, label %if.else95, label %if.then92

if.then92:                                        ; preds = %if.end86
  %sub94 = fsub double 1.000000e+00, %div96
  br label %cleanup

if.else95:                                        ; preds = %if.end86
  %sub97 = fadd double %div96, -1.000000e+00
  br label %cleanup

cleanup:                                          ; preds = %if.then48, %if.then, %if.else95, %if.then92, %if.else43, %if.then41, %if.end13, %if.end11, %if.then9, %if.else
  %retval.0 = phi double [ %mul, %if.then9 ], [ %4, %if.end11 ], [ %14, %if.end13 ], [ %add, %if.then41 ], [ %sub45, %if.else43 ], [ %sub94, %if.then92 ], [ %sub97, %if.else95 ], [ %conv, %if.else ], [ %x, %if.then ], [ %., %if.then48 ]
  ret double %retval.0
}